target datalayout = "e-m:e-p270:32:32-p271:32:32-p272:64:64-i64:64-i128:128-f80:128-n8:16:32:64-S128"
target triple = "x86_64-pc-linux-gnu"

%struct.X509_POLICY_TREE_st = type { i64, i64, ptr, i32, ptr, ptr, ptr, i32 }
%struct.X509_POLICY_LEVEL_st = type { ptr, ptr, ptr, i32 }

@.str = private unnamed_addr constant [34 x i8] c"../openssl/crypto/x509/pcy_tree.c\00", align 1

; Function Attrs: inlinehint nounwind uwtable
define internal void @sk_X509_POLICY_DATA_pop_free(ptr noundef %0, ptr noundef %1) #3 {
  %3 = alloca ptr, align 8
  %4 = alloca ptr, align 8
  store ptr %0, ptr %3, align 8, !tbaa !40
  store ptr %1, ptr %4, align 8, !tbaa !30
  %5 = load ptr, ptr %3, align 8, !tbaa !40
  %6 = load ptr, ptr %4, align 8, !tbaa !30
  call void @OPENSSL_sk_pop_free(ptr noundef %5, ptr noundef %6)
  ret void
}

; Function Attrs: inlinehint nounwind uwtable
define internal ptr @ossl_check_X509_POLICY_NODE_freefunc_type(ptr noundef %0) #3 {
  %2 = alloca ptr, align 8
  store ptr %0, ptr %2, align 8, !tbaa !30
  %3 = load ptr, ptr %2, align 8, !tbaa !30
  ret ptr %3
}

; Function Attrs: inlinehint nounwind uwtable
define internal ptr @ossl_check_X509_POLICY_NODE_sk_type(ptr noundef %0) #3 {
  %2 = alloca ptr, align 8
  store ptr %0, ptr %2, align 8, !tbaa !29
  %3 = load ptr, ptr %2, align 8, !tbaa !29
  ret ptr %3
}

; Function Attrs: nounwind uwtable
define void @X509_policy_tree_free(ptr noundef %0) #0 {
  %2 = alloca ptr, align 8
  %3 = alloca ptr, align 8
  %4 = alloca i32, align 4
  %5 = alloca i32, align 4
  store ptr %0, ptr %2, align 8, !tbaa !3
  call void @llvm.lifetime.start.p0(i64 8, ptr %3) #4
  call void @llvm.lifetime.start.p0(i64 4, ptr %4) #4
  %6 = load ptr, ptr %2, align 8, !tbaa !3
  %7 = icmp ne ptr %6, null
  br i1 %7, label %9, label %8

8:                                                ; preds = %1
  store i32 1, ptr %5, align 4
  br label %53

9:                                                ; preds = %1
  %10 = load ptr, ptr %2, align 8, !tbaa !3
  %11 = getelementptr inbounds nuw %struct.X509_POLICY_TREE_st, ptr %10, i32 0, i32 5
  %12 = load ptr, ptr %11, align 8, !tbaa !8
  %13 = call ptr @ossl_check_X509_POLICY_NODE_sk_type(ptr noundef %12)
  call void @OPENSSL_sk_free(ptr noundef %13)
  %14 = load ptr, ptr %2, align 8, !tbaa !3
  %15 = getelementptr inbounds nuw %struct.X509_POLICY_TREE_st, ptr %14, i32 0, i32 6
  %16 = load ptr, ptr %15, align 8, !tbaa !15
  %17 = call ptr @ossl_check_X509_POLICY_NODE_sk_type(ptr noundef %16)
  %18 = call ptr @ossl_check_X509_POLICY_NODE_freefunc_type(ptr noundef @exnode_free)
  call void @OPENSSL_sk_pop_free(ptr noundef %17, ptr noundef %18)
  store i32 0, ptr %4, align 4, !tbaa !16
  %19 = load ptr, ptr %2, align 8, !tbaa !3
  %20 = getelementptr inbounds nuw %struct.X509_POLICY_TREE_st, ptr %19, i32 0, i32 2
  %21 = load ptr, ptr %20, align 8, !tbaa !17
  store ptr %21, ptr %3, align 8, !tbaa !18
  br label %22

22:                                               ; preds = %40, %9
  %23 = load i32, ptr %4, align 4, !tbaa !16
  %24 = load ptr, ptr %2, align 8, !tbaa !3
  %25 = getelementptr inbounds nuw %struct.X509_POLICY_TREE_st, ptr %24, i32 0, i32 3
  %26 = load i32, ptr %25, align 8, !tbaa !19
  %27 = icmp slt i32 %23, %26
  br i1 %27, label %28, label %45

28:                                               ; preds = %22
  %29 = load ptr, ptr %3, align 8, !tbaa !18
  %30 = getelementptr inbounds nuw %struct.X509_POLICY_LEVEL_st, ptr %29, i32 0, i32 0
  %31 = load ptr, ptr %30, align 8, !tbaa !20
  call void @X509_free(ptr noundef %31)
  %32 = load ptr, ptr %3, align 8, !tbaa !18
  %33 = getelementptr inbounds nuw %struct.X509_POLICY_LEVEL_st, ptr %32, i32 0, i32 1
  %34 = load ptr, ptr %33, align 8, !tbaa !24
  %35 = call ptr @ossl_check_X509_POLICY_NODE_sk_type(ptr noundef %34)
  %36 = call ptr @ossl_check_X509_POLICY_NODE_freefunc_type(ptr noundef @ossl_policy_node_free)
  call void @OPENSSL_sk_pop_free(ptr noundef %35, ptr noundef %36)
  %37 = load ptr, ptr %3, align 8, !tbaa !18
  %38 = getelementptr inbounds nuw %struct.X509_POLICY_LEVEL_st, ptr %37, i32 0, i32 2
  %39 = load ptr, ptr %38, align 8, !tbaa !25
  call void @ossl_policy_node_free(ptr noundef %39)
  br label %40

40:                                               ; preds = %28
  %41 = load i32, ptr %4, align 4, !tbaa !16
  %42 = add nsw i32 %41, 1
  store i32 %42, ptr %4, align 4, !tbaa !16
  %43 = load ptr, ptr %3, align 8, !tbaa !18
  %44 = getelementptr inbounds nuw %struct.X509_POLICY_LEVEL_st, ptr %43, i32 1
  store ptr %44, ptr %3, align 8, !tbaa !18
  br label %22, !llvm.loop !26

45:                                               ; preds = %22
  %46 = load ptr, ptr %2, align 8, !tbaa !3
  %47 = getelementptr inbounds nuw %struct.X509_POLICY_TREE_st, ptr %46, i32 0, i32 4
  %48 = load ptr, ptr %47, align 8, !tbaa !28
  call void @sk_X509_POLICY_DATA_pop_free(ptr noundef %48, ptr noundef @ossl_policy_data_free)
  %49 = load ptr, ptr %2, align 8, !tbaa !3
  %50 = getelementptr inbounds nuw %struct.X509_POLICY_TREE_st, ptr %49, i32 0, i32 2
  %51 = load ptr, ptr %50, align 8, !tbaa !17
  call void @CRYPTO_free(ptr noundef %51, ptr noundef @.str, i32 noundef 646)
  %52 = load ptr, ptr %2, align 8, !tbaa !3
  call void @CRYPTO_free(ptr noundef %52, ptr noundef @.str, i32 noundef 647)
  store i32 0, ptr %5, align 4
  br label %53

53:                                               ; preds = %45, %8
  call void @llvm.lifetime.end.p0(i64 4, ptr %4) #4
  call void @llvm.lifetime.end.p0(i64 8, ptr %3) #4
  %54 = load i32, ptr %5, align 4
  switch i32 %54, label %56 [
    i32 0, label %55
    i32 1, label %55
  ]

55:                                               ; preds = %53, %53
  ret void

56:                                               ; preds = %53
  unreachable
}