; Function Attrs: nounwind uwtable
define void @X509_policy_tree_free(ptr noundef %0) local_unnamed_addr #0 {
  %.not = icmp eq ptr %0, null
  br i1 %.not, label %24, label %2

2:                                                ; preds = %1
  %3 = getelementptr inbounds nuw i8, ptr %0, i64 40
  %4 = load ptr, ptr %3, align 8, !tbaa !3
  tail call void @OPENSSL_sk_free(ptr noundef %4) #3
  %5 = getelementptr inbounds nuw i8, ptr %0, i64 48
  %6 = load ptr, ptr %5, align 8, !tbaa !13
  tail call void @OPENSSL_sk_pop_free(ptr noundef %6, ptr noundef nonnull @exnode_free) #3
  %7 = getelementptr inbounds nuw i8, ptr %0, i64 16
  %8 = getelementptr inbounds nuw i8, ptr %0, i64 24
  %9 = load i32, ptr %8, align 8, !tbaa !14
  %10 = icmp sgt i32 %9, 0
  br i1 %10, label %.lr.ph.preheader, label %._crit_edge

.lr.ph.preheader:                                 ; preds = %2
  %11 = load ptr, ptr %7, align 8, !tbaa !15
  br label %.lr.ph

.lr.ph:                                           ; preds = %.lr.ph.preheader, %.lr.ph
  %.016 = phi i32 [ %17, %.lr.ph ], [ 0, %.lr.ph.preheader ]
  %.01315 = phi ptr [ %18, %.lr.ph ], [ %11, %.lr.ph.preheader ]
  %12 = load ptr, ptr %.01315, align 8, !tbaa !16
  tail call void @X509_free(ptr noundef %12) #3
  %13 = getelementptr inbounds nuw i8, ptr %.01315, i64 8
  %14 = load ptr, ptr %13, align 8, !tbaa !20
  tail call void @OPENSSL_sk_pop_free(ptr noundef %14, ptr noundef nonnull @ossl_policy_node_free) #3
  %15 = getelementptr inbounds nuw i8, ptr %.01315, i64 16
  %16 = load ptr, ptr %15, align 8, !tbaa !21
  tail call void @ossl_policy_node_free(ptr noundef %16) #3
  %17 = add nuw nsw i32 %.016, 1
  %18 = getelementptr inbounds nuw i8, ptr %.01315, i64 32
  %19 = load i32, ptr %8, align 8, !tbaa !14
  %20 = icmp slt i32 %17, %19
  br i1 %20, label %.lr.ph, label %._crit_edge, !llvm.loop !22

._crit_edge:                                      ; preds = %.lr.ph, %2
  %21 = getelementptr inbounds nuw i8, ptr %0, i64 32
  %22 = load ptr, ptr %21, align 8, !tbaa !24
  tail call void @OPENSSL_sk_pop_free(ptr noundef %22, ptr noundef nonnull @ossl_policy_data_free) #3
  %23 = load ptr, ptr %7, align 8, !tbaa !15
  tail call void @CRYPTO_free(ptr noundef %23, ptr noundef nonnull @.str, i32 noundef 646) #3
  tail call void @CRYPTO_free(ptr noundef nonnull %0, ptr noundef nonnull @.str, i32 noundef 647) #3
  br label %24

24:                                               ; preds = %1, %._crit_edge
  ret void
}